target datalayout = "e-m:e-p270:32:32-p271:32:32-p272:64:64-i64:64-i128:128-f80:128-n8:16:32:64-S128"
target triple = "x86_64-pc-linux-gnu"

%struct.ccan_list_head = type { %struct.ccan_list_node }
%struct.ccan_list_node = type { ptr, ptr }
%struct.RBasic = type { i64, i64 }
%struct.rb_objspace = type { %struct.anon.33, %struct.rb_gc_config, [3 x i8], %struct.anon.19, i32, i64, [5 x %struct.rb_heap_struct], i64, ptr, %struct.anon.34, %struct.mark_stack, i64, %struct.anon.35, ptr, %struct.anon.36, i64, %struct.anon.37, %struct.anon.38, %struct.anon.39, ptr, ptr, i64, ptr, i32, i64 }
%struct.anon.33 = type { i64, i64 }
%struct.rb_gc_config = type { i8 }
%struct.anon.19 = type { i16, [2 x i8] }
%struct.rb_heap_struct = type { i16, i64, i64, i64, i64, i64, i64, i64, i64, ptr, %struct.ccan_list_head, ptr, ptr, i64, ptr, i64, i64 }
%struct.anon.34 = type { i32 }
%struct.mark_stack = type { ptr, ptr, i32, i32, i64, i64 }
%struct.anon.35 = type { ptr, i64, i64, [2 x i64], i64, i64, i64 }
%struct.anon.36 = type { i32, i32, ptr, ptr, i64, i64, double, i64, i64, i64, i64, double, i64, i64, i64, i64, %struct.timespec, i64, %struct.timespec, i64, i64 }
%struct.timespec = type { i64, i64 }
%struct.anon.37 = type { i64, i32, i64, i64, i64, i64, i64, i64, i64 }
%struct.anon.38 = type { [31 x i64], [31 x i64], [31 x i64], [31 x i64], i64, ptr }
%struct.anon.39 = type { i64, i64 }
%struct.heap_page_body = type { %struct.heap_page_header }
%struct.heap_page_header = type { ptr }
%struct.heap_page = type { i16, i16, i16, i16, i16, [2 x i8], %struct.anon.20, ptr, ptr, ptr, i64, ptr, %struct.ccan_list_node, [26 x i64], [26 x i64], [26 x i64], [26 x i64], [26 x i64], [26 x i64], [52 x i64] }
%struct.anon.20 = type { i8, [3 x i8] }
%struct.RZombie = type { %struct.RBasic, i64, ptr, ptr }

; Function Attrs: inlinehint nounwind sspstrong memory(argmem: readwrite, inaccessiblemem: readwrite) uwtable
define internal i64 @rbimpl_atomic_size_cas(ptr noundef nonnull %0, i64 noundef %1, i64 noundef %2) #34 {
  %4 = alloca ptr, align 8
  %5 = alloca i64, align 8
  %6 = alloca i64, align 8
  %7 = alloca i64, align 8
  %8 = alloca i8, align 1
  store ptr %0, ptr %4, align 8, !tbaa !268
  store i64 %1, ptr %5, align 8, !tbaa !18
  store i64 %2, ptr %6, align 8, !tbaa !18
  %9 = load ptr, ptr %4, align 8, !tbaa !268
  %10 = load i64, ptr %6, align 8, !tbaa !18
  store i64 %10, ptr %7, align 8, !tbaa !18
  %11 = load i64, ptr %5, align 8
  %12 = load i64, ptr %7, align 8
  %13 = cmpxchg volatile ptr %9, i64 %11, i64 %12 seq_cst seq_cst, align 8
  %14 = extractvalue { i64, i1 } %13, 0
  %15 = extractvalue { i64, i1 } %13, 1
  br i1 %15, label %17, label %16

16:                                               ; preds = %3
  store i64 %14, ptr %5, align 8
  br label %17

17:                                               ; preds = %16, %3
  %18 = zext i1 %15 to i8
  store i8 %18, ptr %8, align 1, !tbaa !41
  %19 = load i64, ptr %5, align 8, !tbaa !18
  ret i64 %19
}

; Function Attrs: inlinehint nounwind sspstrong memory(argmem: readwrite, inaccessiblemem: readwrite) uwtable
define internal i64 @rbimpl_atomic_value_cas(ptr noundef nonnull %0, i64 noundef %1, i64 noundef %2) #34 {
  %4 = alloca ptr, align 8
  %5 = alloca i64, align 8
  %6 = alloca i64, align 8
  %7 = alloca i64, align 8
  %8 = alloca i64, align 8
  %9 = alloca ptr, align 8
  %10 = alloca i64, align 8
  store ptr %0, ptr %4, align 8, !tbaa !268
  store i64 %1, ptr %5, align 8, !tbaa !18
  store i64 %2, ptr %6, align 8, !tbaa !18
  call void @llvm.lifetime.start.p0(i64 8, ptr %7) #6
  %11 = load i64, ptr %6, align 8, !tbaa !18
  store i64 %11, ptr %7, align 8, !tbaa !18
  call void @llvm.lifetime.start.p0(i64 8, ptr %8) #6
  %12 = load i64, ptr %5, align 8, !tbaa !18
  store i64 %12, ptr %8, align 8, !tbaa !18
  call void @llvm.lifetime.start.p0(i64 8, ptr %9) #6
  %13 = load ptr, ptr %4, align 8, !tbaa !268
  store ptr %13, ptr %9, align 8, !tbaa !268
  call void @llvm.lifetime.start.p0(i64 8, ptr %10) #6
  %14 = load ptr, ptr %9, align 8, !tbaa !268
  %15 = load i64, ptr %8, align 8, !tbaa !18
  %16 = load i64, ptr %7, align 8, !tbaa !18
  %17 = call i64 @rbimpl_atomic_size_cas(ptr noundef %14, i64 noundef %15, i64 noundef %16) #48
  store i64 %17, ptr %10, align 8, !tbaa !18
  %18 = load i64, ptr %10, align 8, !tbaa !18
  call void @llvm.lifetime.end.p0(i64 8, ptr %10) #6
  call void @llvm.lifetime.end.p0(i64 8, ptr %9) #6
  call void @llvm.lifetime.end.p0(i64 8, ptr %8) #6
  call void @llvm.lifetime.end.p0(i64 8, ptr %7) #6
  ret i64 %18
}

; Function Attrs: nounwind sspstrong uwtable
define internal void @rb_gc_impl_make_zombie(ptr noundef %0, i64 noundef %1, ptr noundef %2, ptr noundef %3) #0 {
  %5 = alloca ptr, align 8
  %6 = alloca i64, align 8
  %7 = alloca ptr, align 8
  %8 = alloca ptr, align 8
  %9 = alloca ptr, align 8
  %10 = alloca ptr, align 8
  %11 = alloca i64, align 8
  %12 = alloca i64, align 8
  %13 = alloca ptr, align 8
  store ptr %0, ptr %5, align 8, !tbaa !76
  store i64 %1, ptr %6, align 8, !tbaa !18
  store ptr %2, ptr %7, align 8, !tbaa !76
  store ptr %3, ptr %8, align 8, !tbaa !76
  call void @llvm.lifetime.start.p0(i64 8, ptr %9) #6
  %14 = load ptr, ptr %5, align 8, !tbaa !76
  store ptr %14, ptr %9, align 8, !tbaa !125
  call void @llvm.lifetime.start.p0(i64 8, ptr %10) #6
  %15 = load i64, ptr %6, align 8, !tbaa !18
  %16 = inttoptr i64 %15 to ptr
  store ptr %16, ptr %10, align 8, !tbaa !225
  %17 = load ptr, ptr %10, align 8, !tbaa !225
  %18 = getelementptr inbounds nuw %struct.RZombie, ptr %17, i32 0, i32 0
  %19 = getelementptr inbounds nuw %struct.RBasic, ptr %18, i32 0, i32 0
  %20 = load i64, ptr %19, align 8, !tbaa !227
  %21 = and i64 %20, 640
  %22 = or i64 29, %21
  %23 = load ptr, ptr %10, align 8, !tbaa !225
  %24 = getelementptr inbounds nuw %struct.RZombie, ptr %23, i32 0, i32 0
  %25 = getelementptr inbounds nuw %struct.RBasic, ptr %24, i32 0, i32 0
  store i64 %22, ptr %25, align 8, !tbaa !227
  %26 = load ptr, ptr %7, align 8, !tbaa !76
  %27 = load ptr, ptr %10, align 8, !tbaa !225
  %28 = getelementptr inbounds nuw %struct.RZombie, ptr %27, i32 0, i32 2
  store ptr %26, ptr %28, align 8, !tbaa !229
  %29 = load ptr, ptr %8, align 8, !tbaa !76
  %30 = load ptr, ptr %10, align 8, !tbaa !225
  %31 = getelementptr inbounds nuw %struct.RZombie, ptr %30, i32 0, i32 3
  store ptr %29, ptr %31, align 8, !tbaa !230
  call void @llvm.lifetime.start.p0(i64 8, ptr %11) #6
  call void @llvm.lifetime.start.p0(i64 8, ptr %12) #6
  %32 = load ptr, ptr %9, align 8, !tbaa !125
  %33 = getelementptr inbounds nuw %struct.rb_objspace, ptr %32, i32 0, i32 12
  %34 = getelementptr inbounds nuw %struct.anon.35, ptr %33, i32 0, i32 6
  %35 = load i64, ptr %34, align 8, !tbaa !231
  store i64 %35, ptr %12, align 8, !tbaa !18
  br label %36

36:                                               ; preds = %46, %4
  %37 = load i64, ptr %12, align 8, !tbaa !18
  store i64 %37, ptr %11, align 8, !tbaa !18
  %38 = load ptr, ptr %10, align 8, !tbaa !225
  %39 = getelementptr inbounds nuw %struct.RZombie, ptr %38, i32 0, i32 1
  store i64 %37, ptr %39, align 8, !tbaa !232
  %40 = load ptr, ptr %9, align 8, !tbaa !125
  %41 = getelementptr inbounds nuw %struct.rb_objspace, ptr %40, i32 0, i32 12
  %42 = getelementptr inbounds nuw %struct.anon.35, ptr %41, i32 0, i32 6
  %43 = load i64, ptr %11, align 8, !tbaa !18
  %44 = load i64, ptr %6, align 8, !tbaa !18
  %45 = call i64 @rbimpl_atomic_value_cas(ptr noundef %42, i64 noundef %43, i64 noundef %44) #48
  store i64 %45, ptr %12, align 8, !tbaa !18
  br label %46

46:                                               ; preds = %36
  %47 = load i64, ptr %12, align 8, !tbaa !18
  %48 = load i64, ptr %11, align 8, !tbaa !18
  %49 = icmp ne i64 %47, %48
  br i1 %49, label %36, label %50, !llvm.loop !233

50:                                               ; preds = %46
  call void @llvm.lifetime.start.p0(i64 8, ptr %13) #6
  %51 = load i64, ptr %6, align 8, !tbaa !18
  %52 = and i64 %51, -65536
  %53 = inttoptr i64 %52 to ptr
  %54 = getelementptr inbounds nuw %struct.heap_page_body, ptr %53, i32 0, i32 0
  %55 = getelementptr inbounds nuw %struct.heap_page_header, ptr %54, i32 0, i32 0
  %56 = load ptr, ptr %55, align 8, !tbaa !169
  store ptr %56, ptr %13, align 8, !tbaa !163
  %57 = load ptr, ptr %13, align 8, !tbaa !163
  %58 = getelementptr inbounds nuw %struct.heap_page, ptr %57, i32 0, i32 3
  %59 = load i16, ptr %58, align 2, !tbaa !234
  %60 = add i16 %59, 1
  store i16 %60, ptr %58, align 2, !tbaa !234
  %61 = load ptr, ptr %13, align 8, !tbaa !163
  %62 = getelementptr inbounds nuw %struct.heap_page, ptr %61, i32 0, i32 7
  %63 = load ptr, ptr %62, align 8, !tbaa !235
  %64 = getelementptr inbounds nuw %struct.rb_heap_struct, ptr %63, i32 0, i32 6
  %65 = load i64, ptr %64, align 8, !tbaa !236
  %66 = add i64 %65, 1
  store i64 %66, ptr %64, align 8, !tbaa !236
  call void @llvm.lifetime.end.p0(i64 8, ptr %13) #6
  call void @llvm.lifetime.end.p0(i64 8, ptr %12) #6
  call void @llvm.lifetime.end.p0(i64 8, ptr %11) #6
  call void @llvm.lifetime.end.p0(i64 8, ptr %10) #6
  call void @llvm.lifetime.end.p0(i64 8, ptr %9) #6
  ret void
}