; Function Attrs: nofree norecurse nounwind sspstrong uwtable
define internal fastcc void @rb_gc_impl_make_zombie(ptr noundef %0, i64 noundef %1, ptr noundef %2, ptr noundef %3) unnamed_addr #16 {
  %5 = inttoptr i64 %1 to ptr
  %6 = load i64, ptr %5, align 8, !tbaa !234
  %7 = and i64 %6, 640
  %8 = or disjoint i64 %7, 29
  store i64 %8, ptr %5, align 8, !tbaa !234
  %9 = getelementptr inbounds nuw i8, ptr %5, i64 24
  store ptr %2, ptr %9, align 8, !tbaa !236
  %10 = getelementptr inbounds nuw i8, ptr %5, i64 32
  store ptr %3, ptr %10, align 8, !tbaa !237
  %11 = getelementptr inbounds nuw i8, ptr %0, i64 888
  %12 = load i64, ptr %11, align 8, !tbaa !238
  %13 = getelementptr inbounds nuw i8, ptr %5, i64 16
  br label %14

14:                                               ; preds = %14, %4
  %.0 = phi i64 [ %12, %4 ], [ %16, %14 ]
  store i64 %.0, ptr %13, align 8, !tbaa !239
  %15 = cmpxchg volatile ptr %11, i64 %.0, i64 %1 seq_cst seq_cst, align 8
  %16 = extractvalue { i64, i1 } %15, 0
  %.not = extractvalue { i64, i1 } %15, 1
  br i1 %.not, label %17, label %14, !llvm.loop !240

17:                                               ; preds = %14
  %18 = and i64 %1, -65536
  %19 = inttoptr i64 %18 to ptr
  %20 = load ptr, ptr %19, align 65536, !tbaa !186
  %21 = getelementptr inbounds nuw i8, ptr %20, i64 6
  %22 = load i16, ptr %21, align 2, !tbaa !241
  %23 = add i16 %22, 1
  store i16 %23, ptr %21, align 2, !tbaa !241
  %24 = getelementptr inbounds nuw i8, ptr %20, i64 16
  %25 = load ptr, ptr %24, align 8, !tbaa !242
  %26 = getelementptr inbounds nuw i8, ptr %25, i64 48
  %27 = load i64, ptr %26, align 8, !tbaa !243
  %28 = add i64 %27, 1
  store i64 %28, ptr %26, align 8, !tbaa !243
  ret void
}